; ModuleID = '6/1394.c'
source_filename = "6/1394.c"
target datalayout = "e-m:e-p270:32:32-p271:32:32-p272:64:64-i64:64-f80:128-n8:16:32:64-S128"
target triple = "x86_64-pc-linux-gnu"

@.str = private unnamed_addr constant [3 x i8] c"%d\00", align 1
@.str.1 = private unnamed_addr constant [5 x i8] c"%d%d\00", align 1
@.str.2 = private unnamed_addr constant [4 x i8] c"%d\0A\00", align 1

; Function Attrs: noinline nounwind uwtable
define dso_local i32 @main() #0 {
  %1 = alloca i32, align 4
  %2 = alloca i32, align 4
  %3 = alloca i32, align 4
  %4 = alloca i32, align 4
  %5 = alloca i32, align 4
  %6 = alloca i32, align 4
  %7 = alloca i32, align 4
  %8 = alloca i32, align 4
  %9 = alloca i32, align 4
  %10 = alloca i32, align 4
  %11 = alloca i32, align 4
  %12 = alloca i32, align 4
  %13 = alloca [1000 x [1000 x i32]], align 16
  store i32 0, i32* %1, align 4
  store i32 0, i32* %8, align 4
  store i32 0, i32* %9, align 4
  store i32 0, i32* %10, align 4
  store i32 0, i32* %11, align 4
  %14 = call i32 (i8*, ...) @__isoc99_scanf(i8* getelementptr inbounds ([3 x i8], [3 x i8]* @.str, i64 0, i64 0), i32* %2)
  store i32 0, i32* %3, align 4
  br label %15

15:                                               ; preds = %129, %0
  %16 = load i32, i32* %3, align 4
  %17 = load i32, i32* %2, align 4
  %18 = icmp slt i32 %16, %17
  br i1 %18, label %19, label %132

19:                                               ; preds = %15
  %20 = call i32 (i8*, ...) @__isoc99_scanf(i8* getelementptr inbounds ([5 x i8], [5 x i8]* @.str.1, i64 0, i64 0), i32* %6, i32* %7)
  store i32 1, i32* %4, align 4
  br label %21

21:                                               ; preds = %42, %19
  %22 = load i32, i32* %4, align 4
  %23 = load i32, i32* %6, align 4
  %24 = icmp sle i32 %22, %23
  br i1 %24, label %25, label %45

25:                                               ; preds = %21
  store i32 1, i32* %5, align 4
  br label %26

26:                                               ; preds = %38, %25
  %27 = load i32, i32* %5, align 4
  %28 = load i32, i32* %7, align 4
  %29 = icmp sle i32 %27, %28
  br i1 %29, label %30, label %41

30:                                               ; preds = %26
  %31 = load i32, i32* %4, align 4
  %32 = sext i32 %31 to i64
  %33 = getelementptr inbounds [1000 x [1000 x i32]], [1000 x [1000 x i32]]* %13, i64 0, i64 %32
  %34 = load i32, i32* %5, align 4
  %35 = sext i32 %34 to i64
  %36 = getelementptr inbounds [1000 x i32], [1000 x i32]* %33, i64 0, i64 %35
  %37 = call i32 (i8*, ...) @__isoc99_scanf(i8* getelementptr inbounds ([3 x i8], [3 x i8]* @.str, i64 0, i64 0), i32* %36)
  br label %38

38:                                               ; preds = %30
  %39 = load i32, i32* %5, align 4
  %40 = add nsw i32 %39, 1
  store i32 %40, i32* %5, align 4
  br label %26

41:                                               ; preds = %26
  br label %42

42:                                               ; preds = %41
  %43 = load i32, i32* %4, align 4
  %44 = add nsw i32 %43, 1
  store i32 %44, i32* %4, align 4
  br label %21

45:                                               ; preds = %21
  store i32 1, i32* %4, align 4
  br label %46

46:                                               ; preds = %67, %45
  %47 = load i32, i32* %4, align 4
  %48 = load i32, i32* %7, align 4
  %49 = icmp sle i32 %47, %48
  br i1 %49, label %50, label %70

50:                                               ; preds = %46
  %51 = load i32, i32* %8, align 4
  %52 = getelementptr inbounds [1000 x [1000 x i32]], [1000 x [1000 x i32]]* %13, i64 0, i64 1
  %53 = load i32, i32* %4, align 4
  %54 = sext i32 %53 to i64
  %55 = getelementptr inbounds [1000 x i32], [1000 x i32]* %52, i64 0, i64 %54
  %56 = load i32, i32* %55, align 4
  %57 = add nsw i32 %51, %56
  store i32 %57, i32* %8, align 4
  %58 = load i32, i32* %11, align 4
  %59 = load i32, i32* %6, align 4
  %60 = sext i32 %59 to i64
  %61 = getelementptr inbounds [1000 x [1000 x i32]], [1000 x [1000 x i32]]* %13, i64 0, i64 %60
  %62 = load i32, i32* %4, align 4
  %63 = sext i32 %62 to i64
  %64 = getelementptr inbounds [1000 x i32], [1000 x i32]* %61, i64 0, i64 %63
  %65 = load i32, i32* %64, align 4
  %66 = add nsw i32 %58, %65
  store i32 %66, i32* %11, align 4
  br label %67

67:                                               ; preds = %50
  %68 = load i32, i32* %4, align 4
  %69 = add nsw i32 %68, 1
  store i32 %69, i32* %4, align 4
  br label %46

70:                                               ; preds = %46
  store i32 1, i32* %4, align 4
  br label %71

71:                                               ; preds = %92, %70
  %72 = load i32, i32* %4, align 4
  %73 = load i32, i32* %6, align 4
  %74 = icmp sle i32 %72, %73
  br i1 %74, label %75, label %95

75:                                               ; preds = %71
  %76 = load i32, i32* %9, align 4
  %77 = load i32, i32* %4, align 4
  %78 = sext i32 %77 to i64
  %79 = getelementptr inbounds [1000 x [1000 x i32]], [1000 x [1000 x i32]]* %13, i64 0, i64 %78
  %80 = getelementptr inbounds [1000 x i32], [1000 x i32]* %79, i64 0, i64 1
  %81 = load i32, i32* %80, align 4
  %82 = add nsw i32 %76, %81
  store i32 %82, i32* %9, align 4
  %83 = load i32, i32* %10, align 4
  %84 = load i32, i32* %4, align 4
  %85 = sext i32 %84 to i64
  %86 = getelementptr inbounds [1000 x [1000 x i32]], [1000 x [1000 x i32]]* %13, i64 0, i64 %85
  %87 = load i32, i32* %7, align 4
  %88 = sext i32 %87 to i64
  %89 = getelementptr inbounds [1000 x i32], [1000 x i32]* %86, i64 0, i64 %88
  %90 = load i32, i32* %89, align 4
  %91 = add nsw i32 %83, %90
  store i32 %91, i32* %10, align 4
  br label %92

92:                                               ; preds = %75
  %93 = load i32, i32* %4, align 4
  %94 = add nsw i32 %93, 1
  store i32 %94, i32* %4, align 4
  br label %71

95:                                               ; preds = %71
  %96 = load i32, i32* %8, align 4
  %97 = load i32, i32* %9, align 4
  %98 = add nsw i32 %96, %97
  %99 = load i32, i32* %10, align 4
  %100 = add nsw i32 %98, %99
  %101 = load i32, i32* %11, align 4
  %102 = add nsw i32 %100, %101
  %103 = getelementptr inbounds [1000 x [1000 x i32]], [1000 x [1000 x i32]]* %13, i64 0, i64 1
  %104 = getelementptr inbounds [1000 x i32], [1000 x i32]* %103, i64 0, i64 1
  %105 = load i32, i32* %104, align 4
  %106 = sub nsw i32 %102, %105
  %107 = load i32, i32* %6, align 4
  %108 = sext i32 %107 to i64
  %109 = getelementptr inbounds [1000 x [1000 x i32]], [1000 x [1000 x i32]]* %13, i64 0, i64 %108
  %110 = getelementptr inbounds [1000 x i32], [1000 x i32]* %109, i64 0, i64 1
  %111 = load i32, i32* %110, align 4
  %112 = sub nsw i32 %106, %111
  %113 = getelementptr inbounds [1000 x [1000 x i32]], [1000 x [1000 x i32]]* %13, i64 0, i64 1
  %114 = load i32, i32* %7, align 4
  %115 = sext i32 %114 to i64
  %116 = getelementptr inbounds [1000 x i32], [1000 x i32]* %113, i64 0, i64 %115
  %117 = load i32, i32* %116, align 4
  %118 = sub nsw i32 %112, %117
  %119 = load i32, i32* %6, align 4
  %120 = sext i32 %119 to i64
  %121 = getelementptr inbounds [1000 x [1000 x i32]], [1000 x [1000 x i32]]* %13, i64 0, i64 %120
  %122 = load i32, i32* %7, align 4
  %123 = sext i32 %122 to i64
  %124 = getelementptr inbounds [1000 x i32], [1000 x i32]* %121, i64 0, i64 %123
  %125 = load i32, i32* %124, align 4
  %126 = sub nsw i32 %118, %125
  store i32 %126, i32* %12, align 4
  %127 = load i32, i32* %12, align 4
  %128 = call i32 (i8*, ...) @printf(i8* getelementptr inbounds ([4 x i8], [4 x i8]* @.str.2, i64 0, i64 0), i32 %127)
  store i32 0, i32* %8, align 4
  store i32 0, i32* %11, align 4
  store i32 0, i32* %9, align 4
  store i32 0, i32* %10, align 4
  br label %129

129:                                              ; preds = %95
  %130 = load i32, i32* %3, align 4
  %131 = add nsw i32 %130, 1
  store i32 %131, i32* %3, align 4
  br label %15

132:                                              ; preds = %15
  ret i32 0
}

declare dso_local i32 @__isoc99_scanf(i8*, ...) #1

declare dso_local i32 @printf(i8*, ...) #1


!llvm.module.flags = !{!0}
!llvm.ident = !{!1}

!0 = !{i32 1, !"wchar_size", i32 4}
!1 = !{!"clang version 10.0.0-4ubuntu1 "}
